(lp0
(S'Ronny Suarez'
p1
cdatetime
date
p2
(S'\x07\xde\x0c\x18'
p3
tp4
Rp5
tp6
a(S'Marcela Delgado'
p7
g2
(S'\x07\xde\x0c\x18'
p8
tp9
Rp10
tp11
a(S'Alvaro Delgado'
p12
g2
(S'\x07\xde\x0c\x18'
p13
tp14
Rp15
tp16
a(S'Dario Delgado'
p17
g2
(S'\x07\xde\x0c\x18'
p18
tp19
Rp20
tp21
a(S'Celina Marin'
p22
g2
(S'\x07\xde\x0c\x18'
p23
tp24
Rp25
tp26
a.